; Function Attrs: mustprogress uwtable
define void @_ZN8QuantLib25ParametricExerciseAdapter8nextStepERKNS_10CurveStateE(ptr nocapture noundef nonnull align 8 dereferenceable(144) %this, ptr noundef nonnull align 1 %currentState) unnamed_addr #0 align 2 {
entry:
  %exercise_ = getelementptr inbounds nuw i8, ptr %this, i64 8
  %0 = load ptr, ptr %exercise_, align 8, !tbaa !6
  %vtable = load ptr, ptr %0, align 8, !tbaa !3
  %vfn = getelementptr inbounds i8, ptr %vtable, i64 40
  %1 = load ptr, ptr %vfn, align 8
  tail call void %1(ptr noundef nonnull align 8 dereferenceable(8) %0, ptr noundef nonnull align 1 %currentState)
  %currentStep_ = getelementptr inbounds nuw i8, ptr %this, i64 64
  %2 = load i64, ptr %currentStep_, align 8, !tbaa !33
  %_M_data.i = getelementptr inbounds nuw i8, ptr %this, i64 88
  %3 = load ptr, ptr %_M_data.i, align 8, !tbaa !14
  %arrayidx.i = getelementptr inbounds nuw i8, ptr %3, i64 %2
  %4 = load i8, ptr %arrayidx.i, align 1, !tbaa !17, !range !19, !noundef !20
  %loadedv = trunc nuw i8 %4 to i1
  br i1 %loadedv, label %if.then, label %if.end

if.then:                                          ; preds = %entry
  %currentExercise_ = getelementptr inbounds nuw i8, ptr %this, i64 72
  %5 = load i64, ptr %currentExercise_, align 8, !tbaa !52
  %inc = add i64 %5, 1
  store i64 %inc, ptr %currentExercise_, align 8, !tbaa !52
  br label %if.end

if.end:                                           ; preds = %if.then, %entry
  %inc4 = add i64 %2, 1
  store i64 %inc4, ptr %currentStep_, align 8, !tbaa !33
  ret void
}